target datalayout = "e-m:e-p270:32:32-p271:32:32-p272:64:64-i64:64-i128:128-f80:128-n8:16:32:64-S128"
target triple = "x86_64-pc-linux-gnu"

%struct.AVFilterContext = type { ptr, ptr, ptr, ptr, ptr, i32, ptr, ptr, i32, ptr, ptr, i32, i32, ptr, ptr, ptr, ptr, i32, ptr, i32, i32 }
%struct.PermsContext = type { ptr, %struct.AVLFG, i64, i32 }
%struct.AVLFG = type { [64 x i32], i32 }

@.str.27 = private unnamed_addr constant [21 x i8] c"random seed: 0x%08x\0A\00", align 1

; Function Attrs: cold nounwind optsize uwtable
define internal i32 @init(ptr noundef %0) #0 {
  %2 = alloca ptr, align 8
  %3 = alloca ptr, align 8
  %4 = alloca i32, align 4
  store ptr %0, ptr %2, align 8, !tbaa !4
  call void @llvm.lifetime.start.p0(i64 8, ptr %3) #5
  %5 = load ptr, ptr %2, align 8, !tbaa !4
  %6 = getelementptr inbounds nuw %struct.AVFilterContext, ptr %5, i32 0, i32 9
  %7 = load ptr, ptr %6, align 8, !tbaa !9
  store ptr %7, ptr %3, align 8, !tbaa !22
  call void @llvm.lifetime.start.p0(i64 4, ptr %4) #5
  %8 = load ptr, ptr %3, align 8, !tbaa !22
  %9 = getelementptr inbounds nuw %struct.PermsContext, ptr %8, i32 0, i32 2
  %10 = load i64, ptr %9, align 8, !tbaa !24
  %11 = icmp eq i64 %10, -1
  br i1 %11, label %12, label %17

12:                                               ; preds = %1
  %13 = call i32 @av_get_random_seed()
  %14 = zext i32 %13 to i64
  %15 = load ptr, ptr %3, align 8, !tbaa !22
  %16 = getelementptr inbounds nuw %struct.PermsContext, ptr %15, i32 0, i32 2
  store i64 %14, ptr %16, align 8, !tbaa !24
  br label %17

17:                                               ; preds = %12, %1
  %18 = load ptr, ptr %3, align 8, !tbaa !22
  %19 = getelementptr inbounds nuw %struct.PermsContext, ptr %18, i32 0, i32 2
  %20 = load i64, ptr %19, align 8, !tbaa !24
  %21 = trunc i64 %20 to i32
  store i32 %21, ptr %4, align 4, !tbaa !28
  %22 = load ptr, ptr %2, align 8, !tbaa !4
  %23 = load i32, ptr %4, align 4, !tbaa !28
  call void (ptr, i32, ptr, ...) @av_log(ptr noundef %22, i32 noundef 32, ptr noundef @.str.27, i32 noundef %23)
  %24 = load ptr, ptr %3, align 8, !tbaa !22
  %25 = getelementptr inbounds nuw %struct.PermsContext, ptr %24, i32 0, i32 1
  %26 = load i32, ptr %4, align 4, !tbaa !28
  call void @av_lfg_init(ptr noundef %25, i32 noundef %26)
  call void @llvm.lifetime.end.p0(i64 4, ptr %4) #5
  call void @llvm.lifetime.end.p0(i64 8, ptr %3) #5
  ret i32 0
}