; Function Attrs: cold nounwind optsize uwtable
define internal noundef i32 @init(ptr noundef %0) #0 {
  %2 = getelementptr inbounds nuw i8, ptr %0, i64 72
  %3 = load ptr, ptr %2, align 8, !tbaa !4
  %4 = getelementptr inbounds nuw i8, ptr %3, i64 272
  %5 = load i64, ptr %4, align 8, !tbaa !20
  %6 = icmp eq i64 %5, -1
  br i1 %6, label %7, label %10

7:                                                ; preds = %1
  %8 = tail call i32 @av_get_random_seed() #3
  %9 = zext i32 %8 to i64
  store i64 %9, ptr %4, align 8, !tbaa !20
  br label %10

10:                                               ; preds = %7, %1
  %11 = phi i64 [ %9, %7 ], [ %5, %1 ]
  %12 = trunc i64 %11 to i32
  tail call void (ptr, i32, ptr, ...) @av_log(ptr noundef nonnull %0, i32 noundef 32, ptr noundef nonnull @.str.27, i32 noundef %12) #3
  %13 = getelementptr inbounds nuw i8, ptr %3, i64 8
  tail call void @av_lfg_init(ptr noundef nonnull %13, i32 noundef %12) #3
  ret i32 0
}